; Function Attrs: mustprogress nounwind uwtable
define noundef nonnull align 8 dereferenceable(32) ptr @_ZN9grpc_core17EndpointAddressesaSEOS0_(ptr noundef nonnull returned align 8 dereferenceable(32) initializes((8, 16)) %0, ptr noundef nonnull align 8 dereferenceable(32) %1) local_unnamed_addr #7 align 2 personality ptr @__gxx_personality_v0 {
  %3 = load ptr, ptr %0, align 8, !tbaa !3
  %4 = getelementptr inbounds nuw i8, ptr %0, i64 8
  %5 = getelementptr inbounds nuw i8, ptr %0, i64 16
  %6 = load ptr, ptr %5, align 8, !tbaa !10
  %7 = load ptr, ptr %1, align 8, !tbaa !3
  store ptr %7, ptr %0, align 8, !tbaa !3
  %8 = getelementptr inbounds nuw i8, ptr %1, i64 8
  %9 = load ptr, ptr %8, align 8, !tbaa !9
  store ptr %9, ptr %4, align 8, !tbaa !9
  %10 = getelementptr inbounds nuw i8, ptr %1, i64 16
  %11 = load ptr, ptr %10, align 8, !tbaa !10
  store ptr %11, ptr %5, align 8, !tbaa !10
  %.not.i.i.i.i.i = icmp eq ptr %3, null
  tail call void @llvm.memset.p0.i64(ptr noundef nonnull align 8 dereferenceable(24) %1, i8 0, i64 24, i1 false)
  br i1 %.not.i.i.i.i.i, label %_ZNSt6vectorI21grpc_resolved_addressSaIS0_EEaSEOS2_.exit, label %12

12:                                               ; preds = %2
  %13 = ptrtoint ptr %6 to i64
  %14 = ptrtoint ptr %3 to i64
  %15 = sub i64 %13, %14
  tail call void @_ZdlPvm(ptr noundef nonnull %3, i64 noundef %15) #26
  br label %_ZNSt6vectorI21grpc_resolved_addressSaIS0_EEaSEOS2_.exit

_ZNSt6vectorI21grpc_resolved_addressSaIS0_EEaSEOS2_.exit: ; preds = %2, %12
  %16 = getelementptr inbounds nuw i8, ptr %1, i64 24
  %17 = getelementptr inbounds nuw i8, ptr %0, i64 24
  %18 = tail call noundef nonnull align 8 dereferenceable(8) ptr @_ZN9grpc_core11ChannelArgsaSEOS0_(ptr noundef nonnull align 8 dereferenceable(8) %17, ptr noundef nonnull align 8 dereferenceable(8) %16) #27
  ret ptr %0
}